target datalayout = "e-m:e-p270:32:32-p271:32:32-p272:64:64-i64:64-i128:128-f80:128-n8:16:32:64-S128"
target triple = "x86_64-pc-linux-gnu"

%class.TestData = type { ptr, ptr, ptr, ptr, ptr, i32, i32, i32, i32 }
%class.RBTestData = type { %class.TestData, ptr, ptr, ptr, ptr }

; Function Attrs: inlinehint mustprogress nounwind uwtable
define internal noundef signext i8 @_ZL9U_SUCCESS10UErrorCode(i32 noundef %0) #5 {
  %2 = alloca i32, align 4
  store i32 %0, ptr %2, align 4, !tbaa !33
  %3 = load i32, ptr %2, align 4, !tbaa !33
  %4 = icmp sle i32 %3, 0
  %5 = zext i1 %4 to i8
  ret i8 %5
}

; Function Attrs: mustprogress uwtable
define noundef signext i8 @_ZN10RBTestData12nextSettingsERPK7DataMapR10UErrorCode(ptr noundef nonnull align 8 dereferenceable(88) %0, ptr noundef nonnull align 8 dereferenceable(8) %1, ptr noundef nonnull align 4 dereferenceable(4) %2) unnamed_addr #2 align 2 personality ptr @__gxx_personality_v0 {
  %4 = alloca i8, align 1
  %5 = alloca ptr, align 8
  %6 = alloca ptr, align 8
  %7 = alloca ptr, align 8
  %8 = alloca i32, align 4
  %9 = alloca ptr, align 8
  %10 = alloca ptr, align 8
  %11 = alloca i32, align 4
  %12 = alloca i32, align 4
  store ptr %0, ptr %5, align 8, !tbaa !23
  store ptr %1, ptr %6, align 8, !tbaa !35
  store ptr %2, ptr %7, align 8, !tbaa !32
  %13 = load ptr, ptr %5, align 8
  call void @llvm.lifetime.start.p0(i64 4, ptr %8) #9
  store i32 0, ptr %8, align 4, !tbaa !33
  call void @llvm.lifetime.start.p0(i64 8, ptr %9) #9
  %14 = getelementptr inbounds nuw %class.RBTestData, ptr %13, i32 0, i32 3
  %15 = load ptr, ptr %14, align 8, !tbaa !29
  %16 = getelementptr inbounds nuw %class.TestData, ptr %13, i32 0, i32 7
  %17 = load i32, ptr %16, align 8, !tbaa !21
  %18 = add nsw i32 %17, 1
  store i32 %18, ptr %16, align 8, !tbaa !21
  %19 = call ptr @ures_getByIndex_77(ptr noundef %15, i32 noundef %17, ptr noundef null, ptr noundef %8)
  store ptr %19, ptr %9, align 8, !tbaa !31
  %20 = load i32, ptr %8, align 4, !tbaa !33
  %21 = call noundef signext i8 @_ZL9U_SUCCESS10UErrorCode(i32 noundef %20)
  %22 = icmp ne i8 %21, 0
  br i1 %22, label %23, label %48

23:                                               ; preds = %3
  %24 = getelementptr inbounds nuw %class.TestData, ptr %13, i32 0, i32 8
  store i32 0, ptr %24, align 4, !tbaa !22
  %25 = getelementptr inbounds nuw %class.TestData, ptr %13, i32 0, i32 3
  %26 = load ptr, ptr %25, align 8, !tbaa !17
  %27 = icmp eq ptr %26, null
  br i1 %27, label %28, label %38

28:                                               ; preds = %23
  %29 = call noalias noundef nonnull ptr @_Znwm(i64 noundef 16) #11
  %30 = load ptr, ptr %9, align 8, !tbaa !31
  %31 = load ptr, ptr %7, align 8, !tbaa !32
  invoke void @_ZN9RBDataMapC1EP15UResourceBundleR10UErrorCode(ptr noundef nonnull align 8 dereferenceable(16) %29, ptr noundef %30, ptr noundef nonnull align 4 dereferenceable(4) %31)
          to label %32 unwind label %34

32:                                               ; preds = %28
  %33 = getelementptr inbounds nuw %class.TestData, ptr %13, i32 0, i32 3
  store ptr %29, ptr %33, align 8, !tbaa !17
  br label %43

34:                                               ; preds = %28
  %35 = landingpad { ptr, i32 }
          cleanup
  %36 = extractvalue { ptr, i32 } %35, 0
  store ptr %36, ptr %10, align 8
  %37 = extractvalue { ptr, i32 } %35, 1
  store i32 %37, ptr %11, align 4
  call void @_ZdlPvm(ptr noundef %29, i64 noundef 16) #12
  call void @llvm.lifetime.end.p0(i64 8, ptr %9) #9
  call void @llvm.lifetime.end.p0(i64 4, ptr %8) #9
  br label %52

38:                                               ; preds = %23
  %39 = getelementptr inbounds nuw %class.TestData, ptr %13, i32 0, i32 3
  %40 = load ptr, ptr %39, align 8, !tbaa !17
  %41 = load ptr, ptr %9, align 8, !tbaa !31
  %42 = load ptr, ptr %7, align 8, !tbaa !32
  call void @_ZN9RBDataMap4initEP15UResourceBundleR10UErrorCode(ptr noundef nonnull align 8 dereferenceable(16) %40, ptr noundef %41, ptr noundef nonnull align 4 dereferenceable(4) %42)
  br label %43

43:                                               ; preds = %38, %32
  %44 = load ptr, ptr %9, align 8, !tbaa !31
  call void @ures_close_77(ptr noundef %44)
  %45 = getelementptr inbounds nuw %class.TestData, ptr %13, i32 0, i32 3
  %46 = load ptr, ptr %45, align 8, !tbaa !17
  %47 = load ptr, ptr %6, align 8, !tbaa !35
  store ptr %46, ptr %47, align 8, !tbaa !38
  store i8 1, ptr %4, align 1
  store i32 1, ptr %12, align 4
  br label %50

48:                                               ; preds = %3
  %49 = load ptr, ptr %6, align 8, !tbaa !35
  store ptr null, ptr %49, align 8, !tbaa !38
  store i8 0, ptr %4, align 1
  store i32 1, ptr %12, align 4
  br label %50

50:                                               ; preds = %48, %43
  call void @llvm.lifetime.end.p0(i64 8, ptr %9) #9
  call void @llvm.lifetime.end.p0(i64 4, ptr %8) #9
  %51 = load i8, ptr %4, align 1
  ret i8 %51

52:                                               ; preds = %34
  %53 = load ptr, ptr %10, align 8
  %54 = load i32, ptr %11, align 4
  %55 = insertvalue { ptr, i32 } poison, ptr %53, 0
  %56 = insertvalue { ptr, i32 } %55, i32 %54, 1
  resume { ptr, i32 } %56
}