; Function Attrs: mustprogress uwtable
define noundef signext range(i8 0, 2) i8 @_ZN10RBTestData12nextSettingsERPK7DataMapR10UErrorCode(ptr noundef nonnull align 8 captures(none) dereferenceable(88) %0, ptr noundef nonnull writeonly align 8 captures(none) dereferenceable(8) %1, ptr noundef nonnull align 4 dereferenceable(4) %2) unnamed_addr #5 align 2 personality ptr @__gxx_personality_v0 {
  %4 = alloca i32, align 4
  call void @llvm.lifetime.start.p0(i64 4, ptr nonnull %4) #14
  store i32 0, ptr %4, align 4, !tbaa !20
  %5 = getelementptr inbounds nuw i8, ptr %0, i64 72
  %6 = load ptr, ptr %5, align 8, !tbaa !22
  %7 = getelementptr inbounds nuw i8, ptr %0, i64 48
  %8 = load i32, ptr %7, align 8, !tbaa !27
  %9 = add nsw i32 %8, 1
  store i32 %9, ptr %7, align 8, !tbaa !27
  %10 = call ptr @ures_getByIndex_77(ptr noundef %6, i32 noundef %8, ptr noundef null, ptr noundef nonnull %4)
  %11 = load i32, ptr %4, align 4, !tbaa !20
  %12 = icmp sgt i32 %11, 0
  br i1 %12, label %26, label %13

13:                                               ; preds = %3
  %14 = getelementptr inbounds nuw i8, ptr %0, i64 52
  store i32 0, ptr %14, align 4, !tbaa !28
  %15 = getelementptr inbounds nuw i8, ptr %0, i64 24
  %16 = load ptr, ptr %15, align 8, !tbaa !14
  %17 = icmp eq ptr %16, null
  br i1 %17, label %18, label %23

18:                                               ; preds = %13
  %19 = call noalias noundef nonnull dereferenceable(16) ptr @_Znwm(i64 noundef 16) #16
  invoke void @_ZN9RBDataMapC1EP15UResourceBundleR10UErrorCode(ptr noundef nonnull align 8 dereferenceable(16) %19, ptr noundef %10, ptr noundef nonnull align 4 dereferenceable(4) %2)
          to label %20 unwind label %21

20:                                               ; preds = %18
  store ptr %19, ptr %15, align 8, !tbaa !14
  br label %24

21:                                               ; preds = %18
  %22 = landingpad { ptr, i32 }
          cleanup
  call void @_ZdlPvm(ptr noundef nonnull %19, i64 noundef 16) #17
  call void @llvm.lifetime.end.p0(i64 4, ptr nonnull %4) #14
  resume { ptr, i32 } %22

23:                                               ; preds = %13
  call void @_ZN9RBDataMap4initEP15UResourceBundleR10UErrorCode(ptr noundef nonnull align 8 dereferenceable(16) %16, ptr noundef %10, ptr noundef nonnull align 4 dereferenceable(4) %2)
  br label %24

24:                                               ; preds = %23, %20
  call void @ures_close_77(ptr noundef %10)
  %25 = load ptr, ptr %15, align 8, !tbaa !14
  br label %26

26:                                               ; preds = %3, %24
  %storemerge = phi ptr [ %25, %24 ], [ null, %3 ]
  %.0 = phi i8 [ 1, %24 ], [ 0, %3 ]
  store ptr %storemerge, ptr %1, align 8, !tbaa !26
  call void @llvm.lifetime.end.p0(i64 4, ptr nonnull %4) #14
  ret i8 %.0
}